; Function Attrs: mustprogress uwtable
define hidden void @_ZN6spacer3pob5closeEv(ptr noundef nonnull align 8 captures(none) dereferenceable(152) %0) local_unnamed_addr #3 align 2 {
  %2 = getelementptr inbounds nuw i8, ptr %0, i64 72
  %3 = load i64, ptr %2, align 8
  %4 = and i64 %3, 281474976710656
  %.not = icmp eq i64 %4, 0
  br i1 %.not, label %.loopexit, label %5

5:                                                ; preds = %1
  %6 = getelementptr inbounds nuw i8, ptr %0, i64 88
  %7 = load ptr, ptr %6, align 8, !tbaa !106
  %.not.i = icmp eq ptr %7, null
  br i1 %.not.i, label %_ZN10scoped_ptrIN6spacer10derivationEEaSEPS1_.exit, label %8

8:                                                ; preds = %5
  tail call void @_ZN6spacer10derivationD2Ev(ptr noundef nonnull align 8 dereferenceable(64) %7) #28
  tail call void @_ZN6memory10deallocateEPv(ptr noundef nonnull %7)
  store ptr null, ptr %6, align 8, !tbaa !106
  %.pre = load i64, ptr %2, align 8
  br label %_ZN10scoped_ptrIN6spacer10derivationEEaSEPS1_.exit

_ZN10scoped_ptrIN6spacer10derivationEEaSEPS1_.exit: ; preds = %5, %8
  %9 = phi i64 [ %3, %5 ], [ %.pre, %8 ]
  %10 = and i64 %9, -281474976710657
  store i64 %10, ptr %2, align 8
  %11 = getelementptr inbounds nuw i8, ptr %0, i64 96
  %12 = load ptr, ptr %11, align 8, !tbaa !99
  %13 = icmp eq ptr %12, null
  br i1 %13, label %.loopexit, label %_ZN6vectorIPN6spacer3pobELb0EjE3endEv.exit

_ZN6vectorIPN6spacer3pobELb0EjE3endEv.exit:       ; preds = %_ZN10scoped_ptrIN6spacer10derivationEEaSEPS1_.exit
  %14 = getelementptr inbounds i8, ptr %12, i64 -4
  %15 = load i32, ptr %14, align 4, !tbaa !100
  %16 = zext i32 %15 to i64
  %17 = getelementptr inbounds nuw ptr, ptr %12, i64 %16
  %.not89 = icmp eq i32 %15, 0
  br i1 %.not89, label %.loopexit, label %.lr.ph

.lr.ph:                                           ; preds = %_ZN6vectorIPN6spacer3pobELb0EjE3endEv.exit, %.lr.ph
  %.010 = phi ptr [ %19, %.lr.ph ], [ %12, %_ZN6vectorIPN6spacer3pobELb0EjE3endEv.exit ]
  %18 = load ptr, ptr %.010, align 8, !tbaa !101
  tail call void @_ZN6spacer3pob5closeEv(ptr noundef nonnull align 8 dereferenceable(152) %18)
  %19 = getelementptr inbounds nuw i8, ptr %.010, i64 8
  %.not8 = icmp eq ptr %19, %17
  br i1 %.not8, label %.loopexit, label %.lr.ph

.loopexit:                                        ; preds = %.lr.ph, %_ZN10scoped_ptrIN6spacer10derivationEEaSEPS1_.exit, %_ZN6vectorIPN6spacer3pobELb0EjE3endEv.exit, %1
  ret void
}